; ModuleID = 'source-C-CXX/27/1790.c'
source_filename = "source-C-CXX/27/1790.c"
target datalayout = "e-m:e-p270:32:32-p271:32:32-p272:64:64-i64:64-f80:128-n8:16:32:64-S128"
target triple = "x86_64-pc-linux-gnu"

@.str = private unnamed_addr constant [3 x i8] c"%c\00", align 1
@.str.2 = private unnamed_addr constant [3 x i8] c"%d\00", align 1

; Function Attrs: nofree nounwind sspstrong uwtable
define dso_local i32 @main() local_unnamed_addr #0 {
  %1 = alloca i8, align 1
  call void @llvm.lifetime.start.p0i8(i64 1, i8* nonnull %1) #4
  br label %2

2:                                                ; preds = %20, %0
  %3 = phi i1 [ false, %20 ], [ true, %0 ]
  br label %4

4:                                                ; preds = %2, %22
  %5 = phi i32 [ %23, %22 ], [ 0, %2 ]
  br label %6

6:                                                ; preds = %4, %15
  %7 = phi i32 [ 0, %15 ], [ %5, %4 ]
  %8 = call i32 (i8*, ...) @__isoc99_scanf(i8* getelementptr inbounds ([3 x i8], [3 x i8]* @.str, i64 0, i64 0), i8* nonnull %1)
  %9 = load i8, i8* %1, align 1, !tbaa !5
  switch i8 %9, label %22 [
    i8 10, label %10
    i8 32, label %15
  ]

10:                                               ; preds = %6
  br i1 %3, label %13, label %11

11:                                               ; preds = %10
  %12 = call i32 @putchar(i32 44)
  br label %13

13:                                               ; preds = %11, %10
  %14 = call i32 (i8*, ...) @printf(i8* nonnull dereferenceable(1) getelementptr inbounds ([3 x i8], [3 x i8]* @.str.2, i64 0, i64 0), i32 %7)
  call void @llvm.lifetime.end.p0i8(i64 1, i8* nonnull %1) #4
  ret i32 0

15:                                               ; preds = %6
  %16 = icmp eq i32 %7, 0
  br i1 %16, label %6, label %17

17:                                               ; preds = %15
  br i1 %3, label %20, label %18

18:                                               ; preds = %17
  %19 = call i32 @putchar(i32 44)
  br label %20

20:                                               ; preds = %18, %17
  %21 = call i32 (i8*, ...) @printf(i8* nonnull dereferenceable(1) getelementptr inbounds ([3 x i8], [3 x i8]* @.str.2, i64 0, i64 0), i32 %7)
  br label %2

22:                                               ; preds = %6
  %23 = add nsw i32 %7, 1
  br label %4
}

; Function Attrs: argmemonly mustprogress nofree nosync nounwind willreturn
declare void @llvm.lifetime.start.p0i8(i64 immarg, i8* nocapture) #1

; Function Attrs: nofree nounwind
declare noundef i32 @__isoc99_scanf(i8* nocapture noundef readonly, ...) local_unnamed_addr #2

; Function Attrs: nofree nounwind
declare noundef i32 @printf(i8* nocapture noundef readonly, ...) local_unnamed_addr #2

; Function Attrs: argmemonly mustprogress nofree nosync nounwind willreturn
declare void @llvm.lifetime.end.p0i8(i64 immarg, i8* nocapture) #1

; Function Attrs: nofree nounwind
declare noundef i32 @putchar(i32 noundef) local_unnamed_addr #3


!llvm.module.flags = !{!0, !1, !2, !3}
!llvm.ident = !{!4}

!0 = !{i32 1, !"wchar_size", i32 4}
!1 = !{i32 7, !"PIC Level", i32 2}
!2 = !{i32 7, !"PIE Level", i32 2}
!3 = !{i32 7, !"uwtable", i32 1}
!4 = !{!"clang version 13.0.0"}
!5 = !{!6, !6, i64 0}
!6 = !{!"omnipotent char", !7, i64 0}
!7 = !{!"Simple C/C++ TBAA"}
